target datalayout = "e-m:e-p270:32:32-p271:32:32-p272:64:64-i64:64-i128:128-f80:128-n8:16:32:64-S128"
target triple = "x86_64-pc-linux-gnu"

%"struct.Luau::CodeGen::IrOp" = type { i32 }

; Function Attrs: mustprogress uwtable
define dso_local void @_ZN4Luau7CodeGen20translateInstCaptureERNS0_9IrBuilderEPKji(ptr noundef nonnull align 8 dereferenceable(752) %0, ptr noundef %1, i32 noundef %2) #0 {
  %4 = alloca ptr, align 8
  %5 = alloca ptr, align 8
  %6 = alloca i32, align 4
  %7 = alloca i32, align 4
  %8 = alloca i32, align 4
  %9 = alloca %"struct.Luau::CodeGen::IrOp", align 4
  %10 = alloca %"struct.Luau::CodeGen::IrOp", align 4
  %11 = alloca %"struct.Luau::CodeGen::IrOp", align 4
  %12 = alloca %"struct.Luau::CodeGen::IrOp", align 4
  %13 = alloca %"struct.Luau::CodeGen::IrOp", align 4
  %14 = alloca %"struct.Luau::CodeGen::IrOp", align 4
  %15 = alloca %"struct.Luau::CodeGen::IrOp", align 4
  %16 = alloca %"struct.Luau::CodeGen::IrOp", align 4
  %17 = alloca %"struct.Luau::CodeGen::IrOp", align 4
  store ptr %0, ptr %4, align 8, !tbaa !4
  store ptr %1, ptr %5, align 8, !tbaa !9
  store i32 %2, ptr %6, align 4, !tbaa !11
  call void @llvm.lifetime.start.p0(i64 4, ptr %7) #13
  %18 = load ptr, ptr %5, align 8, !tbaa !9
  %19 = load i32, ptr %18, align 4, !tbaa !11
  %20 = lshr i32 %19, 8
  %21 = and i32 %20, 255
  store i32 %21, ptr %7, align 4, !tbaa !11
  call void @llvm.lifetime.start.p0(i64 4, ptr %8) #13
  %22 = load ptr, ptr %5, align 8, !tbaa !9
  %23 = load i32, ptr %22, align 4, !tbaa !11
  %24 = lshr i32 %23, 16
  %25 = and i32 %24, 255
  store i32 %25, ptr %8, align 4, !tbaa !11
  %26 = load i32, ptr %7, align 4, !tbaa !11
  switch i32 %26, label %75 [
    i32 0, label %27
    i32 1, label %43
    i32 2, label %59
  ]

27:                                               ; preds = %3
  %28 = load ptr, ptr %4, align 8, !tbaa !4
  %29 = load ptr, ptr %4, align 8, !tbaa !4
  %30 = load i32, ptr %8, align 4, !tbaa !11
  %31 = trunc i32 %30 to i8
  %32 = call i32 @_ZN4Luau7CodeGen9IrBuilder5vmRegEh(ptr noundef nonnull align 8 dereferenceable(752) %29, i8 noundef zeroext %31)
  %33 = getelementptr inbounds nuw %"struct.Luau::CodeGen::IrOp", ptr %9, i32 0, i32 0
  store i32 %32, ptr %33, align 4
  %34 = load ptr, ptr %4, align 8, !tbaa !4
  %35 = call i32 @_ZN4Luau7CodeGen9IrBuilder9constUintEj(ptr noundef nonnull align 8 dereferenceable(752) %34, i32 noundef 0)
  %36 = getelementptr inbounds nuw %"struct.Luau::CodeGen::IrOp", ptr %10, i32 0, i32 0
  store i32 %35, ptr %36, align 4
  %37 = getelementptr inbounds nuw %"struct.Luau::CodeGen::IrOp", ptr %9, i32 0, i32 0
  %38 = load i32, ptr %37, align 4
  %39 = getelementptr inbounds nuw %"struct.Luau::CodeGen::IrOp", ptr %10, i32 0, i32 0
  %40 = load i32, ptr %39, align 4
  %41 = call i32 @_ZN4Luau7CodeGen9IrBuilder4instENS0_5IrCmdENS0_4IrOpES3_(ptr noundef nonnull align 8 dereferenceable(752) %28, i8 noundef zeroext 100, i32 %38, i32 %40)
  %42 = getelementptr inbounds nuw %"struct.Luau::CodeGen::IrOp", ptr %11, i32 0, i32 0
  store i32 %41, ptr %42, align 4
  br label %76

43:                                               ; preds = %3
  %44 = load ptr, ptr %4, align 8, !tbaa !4
  %45 = load ptr, ptr %4, align 8, !tbaa !4
  %46 = load i32, ptr %8, align 4, !tbaa !11
  %47 = trunc i32 %46 to i8
  %48 = call i32 @_ZN4Luau7CodeGen9IrBuilder5vmRegEh(ptr noundef nonnull align 8 dereferenceable(752) %45, i8 noundef zeroext %47)
  %49 = getelementptr inbounds nuw %"struct.Luau::CodeGen::IrOp", ptr %12, i32 0, i32 0
  store i32 %48, ptr %49, align 4
  %50 = load ptr, ptr %4, align 8, !tbaa !4
  %51 = call i32 @_ZN4Luau7CodeGen9IrBuilder9constUintEj(ptr noundef nonnull align 8 dereferenceable(752) %50, i32 noundef 1)
  %52 = getelementptr inbounds nuw %"struct.Luau::CodeGen::IrOp", ptr %13, i32 0, i32 0
  store i32 %51, ptr %52, align 4
  %53 = getelementptr inbounds nuw %"struct.Luau::CodeGen::IrOp", ptr %12, i32 0, i32 0
  %54 = load i32, ptr %53, align 4
  %55 = getelementptr inbounds nuw %"struct.Luau::CodeGen::IrOp", ptr %13, i32 0, i32 0
  %56 = load i32, ptr %55, align 4
  %57 = call i32 @_ZN4Luau7CodeGen9IrBuilder4instENS0_5IrCmdENS0_4IrOpES3_(ptr noundef nonnull align 8 dereferenceable(752) %44, i8 noundef zeroext 100, i32 %54, i32 %56)
  %58 = getelementptr inbounds nuw %"struct.Luau::CodeGen::IrOp", ptr %14, i32 0, i32 0
  store i32 %57, ptr %58, align 4
  br label %76

59:                                               ; preds = %3
  %60 = load ptr, ptr %4, align 8, !tbaa !4
  %61 = load ptr, ptr %4, align 8, !tbaa !4
  %62 = load i32, ptr %8, align 4, !tbaa !11
  %63 = trunc i32 %62 to i8
  %64 = call i32 @_ZN4Luau7CodeGen9IrBuilder9vmUpvalueEh(ptr noundef nonnull align 8 dereferenceable(752) %61, i8 noundef zeroext %63)
  %65 = getelementptr inbounds nuw %"struct.Luau::CodeGen::IrOp", ptr %15, i32 0, i32 0
  store i32 %64, ptr %65, align 4
  %66 = load ptr, ptr %4, align 8, !tbaa !4
  %67 = call i32 @_ZN4Luau7CodeGen9IrBuilder9constUintEj(ptr noundef nonnull align 8 dereferenceable(752) %66, i32 noundef 0)
  %68 = getelementptr inbounds nuw %"struct.Luau::CodeGen::IrOp", ptr %16, i32 0, i32 0
  store i32 %67, ptr %68, align 4
  %69 = getelementptr inbounds nuw %"struct.Luau::CodeGen::IrOp", ptr %15, i32 0, i32 0
  %70 = load i32, ptr %69, align 4
  %71 = getelementptr inbounds nuw %"struct.Luau::CodeGen::IrOp", ptr %16, i32 0, i32 0
  %72 = load i32, ptr %71, align 4
  %73 = call i32 @_ZN4Luau7CodeGen9IrBuilder4instENS0_5IrCmdENS0_4IrOpES3_(ptr noundef nonnull align 8 dereferenceable(752) %60, i8 noundef zeroext 100, i32 %70, i32 %72)
  %74 = getelementptr inbounds nuw %"struct.Luau::CodeGen::IrOp", ptr %17, i32 0, i32 0
  store i32 %73, ptr %74, align 4
  br label %76

75:                                               ; preds = %3
  br label %76

76:                                               ; preds = %75, %59, %43, %27
  call void @llvm.lifetime.end.p0(i64 4, ptr %8) #13
  call void @llvm.lifetime.end.p0(i64 4, ptr %7) #13
  ret void
}