; Function Attrs: mustprogress uwtable
define dso_local void @_ZN4Luau7CodeGen20translateInstCaptureERNS0_9IrBuilderEPKji(ptr noundef nonnull align 8 dereferenceable(752) %0, ptr noundef readonly captures(none) %1, i32 noundef %2) local_unnamed_addr #0 {
  %4 = load i32, ptr %1, align 4, !tbaa !4
  %5 = lshr i32 %4, 8
  %6 = lshr i32 %4, 16
  %trunc = trunc i32 %5 to i8
  switch i8 %trunc, label %18 [
    i8 0, label %7
    i8 1, label %10
    i8 2, label %13
  ]

7:                                                ; preds = %3
  %8 = trunc i32 %6 to i8
  %9 = tail call i32 @_ZN4Luau7CodeGen9IrBuilder5vmRegEh(ptr noundef nonnull align 8 dereferenceable(752) %0, i8 noundef zeroext %8)
  br label %.sink.split

10:                                               ; preds = %3
  %11 = trunc i32 %6 to i8
  %12 = tail call i32 @_ZN4Luau7CodeGen9IrBuilder5vmRegEh(ptr noundef nonnull align 8 dereferenceable(752) %0, i8 noundef zeroext %11)
  br label %.sink.split

13:                                               ; preds = %3
  %14 = trunc i32 %6 to i8
  %15 = tail call i32 @_ZN4Luau7CodeGen9IrBuilder9vmUpvalueEh(ptr noundef nonnull align 8 dereferenceable(752) %0, i8 noundef zeroext %14)
  br label %.sink.split

.sink.split:                                      ; preds = %7, %10, %13
  %.sink23 = phi i32 [ 0, %13 ], [ 1, %10 ], [ 0, %7 ]
  %.sink = phi i32 [ %15, %13 ], [ %12, %10 ], [ %9, %7 ]
  %16 = tail call i32 @_ZN4Luau7CodeGen9IrBuilder9constUintEj(ptr noundef nonnull align 8 dereferenceable(752) %0, i32 noundef %.sink23)
  %17 = tail call i32 @_ZN4Luau7CodeGen9IrBuilder4instENS0_5IrCmdENS0_4IrOpES3_(ptr noundef nonnull align 8 dereferenceable(752) %0, i8 noundef zeroext 100, i32 %.sink, i32 %16)
  br label %18

18:                                               ; preds = %.sink.split, %3
  ret void
}